target datalayout = "e-m:e-p270:32:32-p271:32:32-p272:64:64-i64:64-i128:128-f80:128-n8:16:32:64-S128"
target triple = "x86_64-pc-linux-gnu"

%struct.drmp3_allocation_callbacks = type { ptr, ptr, ptr, ptr }

; Function Attrs: nounwind uwtable
define internal void @drmp3__free_default(ptr noundef %0, ptr noundef %1) #0 {
  %3 = alloca ptr, align 8
  %4 = alloca ptr, align 8
  store ptr %0, ptr %3, align 8
  store ptr %1, ptr %4, align 8
  %5 = load ptr, ptr %3, align 8
  call void @free(ptr noundef %5) #21
  ret void
}

; Function Attrs: nounwind uwtable
define internal void @drmp3__free_from_callbacks(ptr noundef %0, ptr noundef %1) #0 {
  %3 = alloca ptr, align 8
  %4 = alloca ptr, align 8
  store ptr %0, ptr %3, align 8
  store ptr %1, ptr %4, align 8
  %5 = load ptr, ptr %3, align 8
  %6 = icmp eq ptr %5, null
  br i1 %6, label %10, label %7

7:                                                ; preds = %2
  %8 = load ptr, ptr %4, align 8
  %9 = icmp eq ptr %8, null
  br i1 %9, label %10, label %11

10:                                               ; preds = %7, %2
  br label %24

11:                                               ; preds = %7
  %12 = load ptr, ptr %4, align 8
  %13 = getelementptr inbounds nuw %struct.drmp3_allocation_callbacks, ptr %12, i32 0, i32 3
  %14 = load ptr, ptr %13, align 8
  %15 = icmp ne ptr %14, null
  br i1 %15, label %16, label %24

16:                                               ; preds = %11
  %17 = load ptr, ptr %4, align 8
  %18 = getelementptr inbounds nuw %struct.drmp3_allocation_callbacks, ptr %17, i32 0, i32 3
  %19 = load ptr, ptr %18, align 8
  %20 = load ptr, ptr %3, align 8
  %21 = load ptr, ptr %4, align 8
  %22 = getelementptr inbounds nuw %struct.drmp3_allocation_callbacks, ptr %21, i32 0, i32 0
  %23 = load ptr, ptr %22, align 8
  call void %19(ptr noundef %20, ptr noundef %23)
  br label %24

24:                                               ; preds = %10, %16, %11
  ret void
}

; Function Attrs: nounwind uwtable
define hidden void @drmp3_free(ptr noundef %0, ptr noundef %1) #0 {
  %3 = alloca ptr, align 8
  %4 = alloca ptr, align 8
  store ptr %0, ptr %3, align 8
  store ptr %1, ptr %4, align 8
  %5 = load ptr, ptr %4, align 8
  %6 = icmp ne ptr %5, null
  br i1 %6, label %7, label %10

7:                                                ; preds = %2
  %8 = load ptr, ptr %3, align 8
  %9 = load ptr, ptr %4, align 8
  call void @drmp3__free_from_callbacks(ptr noundef %8, ptr noundef %9)
  br label %12

10:                                               ; preds = %2
  %11 = load ptr, ptr %3, align 8
  call void @drmp3__free_default(ptr noundef %11, ptr noundef null)
  br label %12

12:                                               ; preds = %10, %7
  ret void
}