; Function Attrs: nounwind uwtable
define hidden void @drmp3_free(ptr noundef %0, ptr noundef readonly captures(address_is_null) %1) local_unnamed_addr #7 {
  %.not = icmp eq ptr %1, null
  br i1 %.not, label %10, label %3

3:                                                ; preds = %2
  %4 = icmp eq ptr %0, null
  br i1 %4, label %drmp3__free_from_callbacks.exit, label %5

5:                                                ; preds = %3
  %6 = getelementptr inbounds nuw i8, ptr %1, i64 24
  %7 = load ptr, ptr %6, align 8
  %.not.i = icmp eq ptr %7, null
  br i1 %.not.i, label %drmp3__free_from_callbacks.exit, label %8

8:                                                ; preds = %5
  %9 = load ptr, ptr %1, align 8
  tail call void %7(ptr noundef nonnull %0, ptr noundef %9) #72
  br label %drmp3__free_from_callbacks.exit

10:                                               ; preds = %2
  tail call void @free(ptr noundef %0) #72
  br label %drmp3__free_from_callbacks.exit

drmp3__free_from_callbacks.exit:                  ; preds = %8, %5, %3, %10
  ret void
}